target datalayout = "e-m:e-p270:32:32-p271:32:32-p272:64:64-i64:64-i128:128-f80:128-n8:16:32:64-S128"
target triple = "x86_64-pc-linux-gnu"

%struct.Float4X4 = type { %union.anon }
%union.anon = type { %struct.anon }
%struct.anon = type { float, float, float, float, float, float, float, float, float, float, float, float, float, float, float, float }
%struct.SDL_Rect = type { i32, i32, i32, i32 }
%struct.VULKAN_RenderData = type { ptr, ptr, i8, ptr, i8, ptr, %struct.VkPhysicalDeviceProperties, %struct.VkPhysicalDeviceMemoryProperties, %struct.VkPhysicalDeviceFeatures, ptr, ptr, ptr, i8, i32, i32, ptr, ptr, ptr, i32, ptr, ptr, %struct.VkSurfaceCapabilitiesKHR, ptr, i8, i32, i32, ptr, [2 x ptr], ptr, [3 x ptr], [3 x ptr], ptr, ptr, [256 x %struct.VULKAN_Buffer], %struct.VULKAN_VertexShaderConstants, ptr, ptr, ptr, ptr, i32, i32, [8 x ptr], ptr, ptr, i32, i32, i32, ptr, ptr, i8, i8, i8, i32, i32, i32, %struct.VkSurfaceFormatKHR, %struct.VkExtent2D, i32, i32, ptr, ptr, ptr, ptr, ptr, ptr, i32, ptr, ptr, i32, i32, ptr, i32, i32, ptr, i8, i8, %struct.SDL_Rect, %struct.SDL_Rect, i32, i8, %struct.Float4X4, %struct.VkComponentMapping, i32, i8 }
%struct.VkPhysicalDeviceProperties = type { i32, i32, i32, i32, i32, [256 x i8], [16 x i8], %struct.VkPhysicalDeviceLimits, %struct.VkPhysicalDeviceSparseProperties }
%struct.VkPhysicalDeviceLimits = type { i32, i32, i32, i32, i32, i32, i32, i32, i32, i32, i32, i64, i64, i32, i32, i32, i32, i32, i32, i32, i32, i32, i32, i32, i32, i32, i32, i32, i32, i32, i32, i32, i32, i32, i32, i32, i32, i32, i32, i32, i32, i32, i32, i32, i32, i32, i32, i32, i32, i32, i32, i32, [3 x i32], i32, [3 x i32], i32, i32, i32, i32, i32, float, float, i32, [2 x i32], [2 x float], i32, i64, i64, i64, i64, i32, i32, i32, i32, float, float, i32, i32, i32, i32, i32, i32, i32, i32, i32, i32, i32, i32, i32, i32, i32, i32, float, i32, i32, i32, i32, [2 x float], [2 x float], float, float, i32, i32, i64, i64, i64 }
%struct.VkPhysicalDeviceSparseProperties = type { i32, i32, i32, i32, i32 }
%struct.VkPhysicalDeviceMemoryProperties = type { i32, [32 x %struct.VkMemoryType], i32, [16 x %struct.VkMemoryHeap] }
%struct.VkMemoryType = type { i32, i32 }
%struct.VkMemoryHeap = type { i64, i32 }
%struct.VkPhysicalDeviceFeatures = type { i32, i32, i32, i32, i32, i32, i32, i32, i32, i32, i32, i32, i32, i32, i32, i32, i32, i32, i32, i32, i32, i32, i32, i32, i32, i32, i32, i32, i32, i32, i32, i32, i32, i32, i32, i32, i32, i32, i32, i32, i32, i32, i32, i32, i32, i32, i32, i32, i32, i32, i32, i32, i32, i32, i32 }
%struct.VkSurfaceCapabilitiesKHR = type { i32, i32, %struct.VkExtent2D, %struct.VkExtent2D, %struct.VkExtent2D, i32, i32, i32, i32, i32 }
%struct.VULKAN_Buffer = type { ptr, ptr, i64, ptr }
%struct.VULKAN_VertexShaderConstants = type { %struct.Float4X4, %struct.Float4X4 }
%struct.VkSurfaceFormatKHR = type { i32, i32 }
%struct.VkExtent2D = type { i32, i32 }
%struct.VkComponentMapping = type { i32, i32, i32, i32 }
%struct.VkSubmitInfo = type { i32, ptr, i32, ptr, ptr, i32, ptr, i32, ptr }

@vkCmdEndRenderPass = internal global ptr null, align 8
@vkEndCommandBuffer = internal global ptr null, align 8
@vkQueueSubmit = internal global ptr null, align 8
@vkQueueWaitIdle = internal global ptr null, align 8

; Function Attrs: nounwind uwtable
define internal void @VULKAN_WaitForGPU(ptr noundef %0) #0 {
  %2 = alloca ptr, align 8
  store ptr %0, ptr %2, align 8
  %3 = load ptr, ptr @vkQueueWaitIdle, align 8
  %4 = load ptr, ptr %2, align 8
  %5 = getelementptr inbounds nuw %struct.VULKAN_RenderData, ptr %4, i32 0, i32 9
  %6 = load ptr, ptr %5, align 8
  %7 = call i32 %3(ptr noundef %6)
  ret void
}

; Function Attrs: nounwind uwtable
define internal i32 @VULKAN_IssueBatch(ptr noundef %0) #0 {
  %2 = alloca i32, align 4
  %3 = alloca ptr, align 8
  %4 = alloca i32, align 4
  %5 = alloca i32, align 4
  %6 = alloca %struct.VkSubmitInfo, align 8
  %7 = alloca i32, align 4
  %8 = alloca i32, align 4
  store ptr %0, ptr %3, align 8
  call void @llvm.lifetime.start.p0(i64 4, ptr %4) #6
  %9 = load ptr, ptr %3, align 8
  %10 = getelementptr inbounds nuw %struct.VULKAN_RenderData, ptr %9, i32 0, i32 19
  %11 = load ptr, ptr %10, align 8
  %12 = icmp eq ptr %11, null
  br i1 %12, label %13, label %14

13:                                               ; preds = %1
  store i32 0, ptr %2, align 4
  store i32 1, ptr %5, align 4
  br label %113

14:                                               ; preds = %1
  %15 = load ptr, ptr %3, align 8
  %16 = getelementptr inbounds nuw %struct.VULKAN_RenderData, ptr %15, i32 0, i32 28
  %17 = load ptr, ptr %16, align 8
  %18 = icmp ne ptr %17, null
  br i1 %18, label %19, label %26

19:                                               ; preds = %14
  %20 = load ptr, ptr @vkCmdEndRenderPass, align 8
  %21 = load ptr, ptr %3, align 8
  %22 = getelementptr inbounds nuw %struct.VULKAN_RenderData, ptr %21, i32 0, i32 19
  %23 = load ptr, ptr %22, align 8
  call void %20(ptr noundef %23)
  %24 = load ptr, ptr %3, align 8
  %25 = getelementptr inbounds nuw %struct.VULKAN_RenderData, ptr %24, i32 0, i32 28
  store ptr null, ptr %25, align 8
  br label %26

26:                                               ; preds = %19, %14
  %27 = load ptr, ptr %3, align 8
  %28 = getelementptr inbounds nuw %struct.VULKAN_RenderData, ptr %27, i32 0, i32 48
  store ptr null, ptr %28, align 8
  %29 = load ptr, ptr %3, align 8
  %30 = getelementptr inbounds nuw %struct.VULKAN_RenderData, ptr %29, i32 0, i32 79
  store i8 1, ptr %30, align 8
  %31 = load ptr, ptr @vkEndCommandBuffer, align 8
  %32 = load ptr, ptr %3, align 8
  %33 = getelementptr inbounds nuw %struct.VULKAN_RenderData, ptr %32, i32 0, i32 19
  %34 = load ptr, ptr %33, align 8
  %35 = call i32 %31(ptr noundef %34)
  call void @llvm.lifetime.start.p0(i64 72, ptr %6) #6
  call void @llvm.memset.p0.i64(ptr align 8 %6, i8 0, i64 72, i1 false)
  call void @llvm.lifetime.start.p0(i64 4, ptr %7) #6
  store i32 65536, ptr %7, align 4
  %36 = getelementptr inbounds nuw %struct.VkSubmitInfo, ptr %6, i32 0, i32 0
  store i32 4, ptr %36, align 8
  %37 = getelementptr inbounds nuw %struct.VkSubmitInfo, ptr %6, i32 0, i32 5
  store i32 1, ptr %37, align 8
  %38 = load ptr, ptr %3, align 8
  %39 = getelementptr inbounds nuw %struct.VULKAN_RenderData, ptr %38, i32 0, i32 19
  %40 = getelementptr inbounds nuw %struct.VkSubmitInfo, ptr %6, i32 0, i32 6
  store ptr %39, ptr %40, align 8
  %41 = load ptr, ptr %3, align 8
  %42 = getelementptr inbounds nuw %struct.VULKAN_RenderData, ptr %41, i32 0, i32 68
  %43 = load i32, ptr %42, align 8
  %44 = icmp ugt i32 %43, 0
  br i1 %44, label %45, label %90

45:                                               ; preds = %26
  call void @llvm.lifetime.start.p0(i64 4, ptr %8) #6
  %46 = load ptr, ptr %3, align 8
  %47 = getelementptr inbounds nuw %struct.VULKAN_RenderData, ptr %46, i32 0, i32 64
  %48 = load ptr, ptr %47, align 8
  %49 = icmp ne ptr %48, null
  %50 = select i1 %49, i32 1, i32 0
  store i32 %50, ptr %8, align 4
  %51 = load ptr, ptr %3, align 8
  %52 = getelementptr inbounds nuw %struct.VULKAN_RenderData, ptr %51, i32 0, i32 68
  %53 = load i32, ptr %52, align 8
  %54 = load i32, ptr %8, align 4
  %55 = add i32 %53, %54
  %56 = getelementptr inbounds nuw %struct.VkSubmitInfo, ptr %6, i32 0, i32 2
  store i32 %55, ptr %56, align 8
  %57 = load i32, ptr %8, align 4
  %58 = icmp ugt i32 %57, 0
  br i1 %58, label %59, label %79

59:                                               ; preds = %45
  %60 = load ptr, ptr %3, align 8
  %61 = getelementptr inbounds nuw %struct.VULKAN_RenderData, ptr %60, i32 0, i32 64
  %62 = load ptr, ptr %61, align 8
  %63 = load ptr, ptr %3, align 8
  %64 = getelementptr inbounds nuw %struct.VULKAN_RenderData, ptr %63, i32 0, i32 67
  %65 = load ptr, ptr %64, align 8
  %66 = load ptr, ptr %3, align 8
  %67 = getelementptr inbounds nuw %struct.VULKAN_RenderData, ptr %66, i32 0, i32 68
  %68 = load i32, ptr %67, align 8
  %69 = zext i32 %68 to i64
  %70 = getelementptr inbounds nuw ptr, ptr %65, i64 %69
  store ptr %62, ptr %70, align 8
  %71 = load ptr, ptr %3, align 8
  %72 = getelementptr inbounds nuw %struct.VULKAN_RenderData, ptr %71, i32 0, i32 66
  %73 = load ptr, ptr %72, align 8
  %74 = load ptr, ptr %3, align 8
  %75 = getelementptr inbounds nuw %struct.VULKAN_RenderData, ptr %74, i32 0, i32 68
  %76 = load i32, ptr %75, align 8
  %77 = zext i32 %76 to i64
  %78 = getelementptr inbounds nuw i32, ptr %73, i64 %77
  store i32 65536, ptr %78, align 4
  br label %79

79:                                               ; preds = %59, %45
  %80 = load ptr, ptr %3, align 8
  %81 = getelementptr inbounds nuw %struct.VULKAN_RenderData, ptr %80, i32 0, i32 67
  %82 = load ptr, ptr %81, align 8
  %83 = getelementptr inbounds nuw %struct.VkSubmitInfo, ptr %6, i32 0, i32 3
  store ptr %82, ptr %83, align 8
  %84 = load ptr, ptr %3, align 8
  %85 = getelementptr inbounds nuw %struct.VULKAN_RenderData, ptr %84, i32 0, i32 66
  %86 = load ptr, ptr %85, align 8
  %87 = getelementptr inbounds nuw %struct.VkSubmitInfo, ptr %6, i32 0, i32 4
  store ptr %86, ptr %87, align 8
  %88 = load ptr, ptr %3, align 8
  %89 = getelementptr inbounds nuw %struct.VULKAN_RenderData, ptr %88, i32 0, i32 68
  store i32 0, ptr %89, align 8
  call void @llvm.lifetime.end.p0(i64 4, ptr %8) #6
  br label %102

90:                                               ; preds = %26
  %91 = load ptr, ptr %3, align 8
  %92 = getelementptr inbounds nuw %struct.VULKAN_RenderData, ptr %91, i32 0, i32 64
  %93 = load ptr, ptr %92, align 8
  %94 = icmp ne ptr %93, null
  br i1 %94, label %95, label %101

95:                                               ; preds = %90
  %96 = getelementptr inbounds nuw %struct.VkSubmitInfo, ptr %6, i32 0, i32 2
  store i32 1, ptr %96, align 8
  %97 = load ptr, ptr %3, align 8
  %98 = getelementptr inbounds nuw %struct.VULKAN_RenderData, ptr %97, i32 0, i32 64
  %99 = getelementptr inbounds nuw %struct.VkSubmitInfo, ptr %6, i32 0, i32 3
  store ptr %98, ptr %99, align 8
  %100 = getelementptr inbounds nuw %struct.VkSubmitInfo, ptr %6, i32 0, i32 4
  store ptr %7, ptr %100, align 8
  br label %101

101:                                              ; preds = %95, %90
  br label %102

102:                                              ; preds = %101, %79
  %103 = load ptr, ptr @vkQueueSubmit, align 8
  %104 = load ptr, ptr %3, align 8
  %105 = getelementptr inbounds nuw %struct.VULKAN_RenderData, ptr %104, i32 0, i32 9
  %106 = load ptr, ptr %105, align 8
  %107 = call i32 %103(ptr noundef %106, i32 noundef 1, ptr noundef %6, ptr noundef null)
  store i32 %107, ptr %4, align 4
  %108 = load ptr, ptr %3, align 8
  %109 = getelementptr inbounds nuw %struct.VULKAN_RenderData, ptr %108, i32 0, i32 64
  store ptr null, ptr %109, align 8
  %110 = load ptr, ptr %3, align 8
  call void @VULKAN_WaitForGPU(ptr noundef %110)
  %111 = load ptr, ptr %3, align 8
  call void @VULKAN_ResetCommandList(ptr noundef %111)
  %112 = load i32, ptr %4, align 4
  store i32 %112, ptr %2, align 4
  store i32 1, ptr %5, align 4
  call void @llvm.lifetime.end.p0(i64 4, ptr %7) #6
  call void @llvm.lifetime.end.p0(i64 72, ptr %6) #6
  br label %113

113:                                              ; preds = %102, %13
  call void @llvm.lifetime.end.p0(i64 4, ptr %4) #6
  %114 = load i32, ptr %2, align 4
  ret i32 %114
}