; Function Attrs: nounwind uwtable
define internal fastcc i32 @VULKAN_IssueBatch(ptr noundef %0) unnamed_addr #0 {
  %2 = alloca %struct.VkSubmitInfo, align 8
  %3 = alloca i32, align 4
  %4 = getelementptr inbounds nuw i8, ptr %0, i64 1688
  %5 = load ptr, ptr %4, align 8
  %6 = icmp eq ptr %5, null
  br i1 %6, label %58, label %7

7:                                                ; preds = %1
  %8 = getelementptr inbounds nuw i8, ptr %0, i64 1808
  %9 = load ptr, ptr %8, align 8
  %.not = icmp eq ptr %9, null
  br i1 %.not, label %12, label %10

10:                                               ; preds = %7
  %11 = load ptr, ptr @vkCmdEndRenderPass, align 8
  tail call void %11(ptr noundef nonnull %5) #8
  store ptr null, ptr %8, align 8
  %.pre = load ptr, ptr %4, align 8
  br label %12

12:                                               ; preds = %10, %7
  %13 = phi ptr [ %.pre, %10 ], [ %5, %7 ]
  %14 = getelementptr inbounds nuw i8, ptr %0, i64 10344
  store ptr null, ptr %14, align 8
  %15 = getelementptr inbounds nuw i8, ptr %0, i64 10536
  store i8 1, ptr %15, align 8
  %16 = load ptr, ptr @vkEndCommandBuffer, align 8
  %17 = tail call i32 %16(ptr noundef %13) #8
  call void @llvm.lifetime.start.p0(i64 72, ptr nonnull %2) #8
  call void @llvm.memset.p0.i64(ptr noundef nonnull align 8 dereferenceable(72) %2, i8 0, i64 72, i1 false)
  call void @llvm.lifetime.start.p0(i64 4, ptr nonnull %3) #8
  store i32 65536, ptr %3, align 4
  store i32 4, ptr %2, align 8
  %18 = getelementptr inbounds nuw i8, ptr %2, i64 40
  store i32 1, ptr %18, align 8
  %19 = getelementptr inbounds nuw i8, ptr %2, i64 48
  store ptr %4, ptr %19, align 8
  %20 = getelementptr inbounds nuw i8, ptr %0, i64 10464
  %21 = load i32, ptr %20, align 8
  %.not30 = icmp eq i32 %21, 0
  %22 = getelementptr inbounds nuw i8, ptr %0, i64 10432
  %23 = load ptr, ptr %22, align 8
  br i1 %.not30, label %45, label %24

24:                                               ; preds = %12
  %.not32 = icmp ne ptr %23, null
  %25 = zext i1 %.not32 to i32
  %26 = add i32 %21, %25
  %27 = getelementptr inbounds nuw i8, ptr %2, i64 16
  store i32 %26, ptr %27, align 8
  br i1 %.not32, label %28, label %38

28:                                               ; preds = %24
  %29 = getelementptr inbounds nuw i8, ptr %0, i64 10456
  %30 = load ptr, ptr %29, align 8
  %31 = zext i32 %21 to i64
  %32 = getelementptr inbounds nuw ptr, ptr %30, i64 %31
  store ptr %23, ptr %32, align 8
  %33 = getelementptr inbounds nuw i8, ptr %0, i64 10448
  %34 = load ptr, ptr %33, align 8
  %35 = load i32, ptr %20, align 8
  %36 = zext i32 %35 to i64
  %37 = getelementptr inbounds nuw i32, ptr %34, i64 %36
  store i32 65536, ptr %37, align 4
  br label %38

38:                                               ; preds = %28, %24
  %39 = getelementptr inbounds nuw i8, ptr %0, i64 10456
  %40 = load ptr, ptr %39, align 8
  %41 = getelementptr inbounds nuw i8, ptr %2, i64 24
  store ptr %40, ptr %41, align 8
  %42 = getelementptr inbounds nuw i8, ptr %0, i64 10448
  %43 = load ptr, ptr %42, align 8
  %44 = getelementptr inbounds nuw i8, ptr %2, i64 32
  store ptr %43, ptr %44, align 8
  store i32 0, ptr %20, align 8
  br label %50

45:                                               ; preds = %12
  %.not31 = icmp eq ptr %23, null
  br i1 %.not31, label %50, label %46

46:                                               ; preds = %45
  %47 = getelementptr inbounds nuw i8, ptr %2, i64 16
  store i32 1, ptr %47, align 8
  %48 = getelementptr inbounds nuw i8, ptr %2, i64 24
  store ptr %22, ptr %48, align 8
  %49 = getelementptr inbounds nuw i8, ptr %2, i64 32
  store ptr %3, ptr %49, align 8
  br label %50

50:                                               ; preds = %45, %46, %38
  %51 = load ptr, ptr @vkQueueSubmit, align 8
  %52 = getelementptr inbounds nuw i8, ptr %0, i64 1616
  %53 = load ptr, ptr %52, align 8
  %54 = call i32 %51(ptr noundef %53, i32 noundef 1, ptr noundef nonnull %2, ptr noundef null) #8
  %55 = getelementptr inbounds nuw i8, ptr %0, i64 10432
  store ptr null, ptr %55, align 8
  %.val = load ptr, ptr %52, align 8
  %56 = load ptr, ptr @vkQueueWaitIdle, align 8
  %57 = call i32 %56(ptr noundef %.val) #8
  call fastcc void @VULKAN_ResetCommandList(ptr noundef nonnull %0)
  call void @llvm.lifetime.end.p0(i64 4, ptr nonnull %3) #8
  call void @llvm.lifetime.end.p0(i64 72, ptr nonnull %2) #8
  br label %58

58:                                               ; preds = %1, %50
  %.0 = phi i32 [ %54, %50 ], [ 0, %1 ]
  ret i32 %.0
}